target datalayout = "e-m:e-p270:32:32-p271:32:32-p272:64:64-i64:64-i128:128-f80:128-n8:16:32:64-S128"
target triple = "x86_64-pc-linux-gnu"

%struct.Llb_Mgr_t_ = type { ptr, ptr, i32, ptr, ptr, i32, i32, i32, ptr }
%struct.Llb_Var_t_ = type { i32, i32, ptr }
%struct.Vec_Int_t_ = type { i32, i32, ptr }
%struct.Llb_Prt_t_ = type { i32, i32, ptr, ptr }

; Function Attrs: inlinehint nounwind uwtable
define internal void @Vec_IntFree(ptr noundef %0) #1 {
  %2 = alloca ptr, align 8
  store ptr %0, ptr %2, align 8, !tbaa !21
  %3 = load ptr, ptr %2, align 8, !tbaa !21
  %4 = getelementptr inbounds nuw %struct.Vec_Int_t_, ptr %3, i32 0, i32 2
  %5 = load ptr, ptr %4, align 8, !tbaa !22
  %6 = icmp ne ptr %5, null
  br i1 %6, label %7, label %13

7:                                                ; preds = %1
  %8 = load ptr, ptr %2, align 8, !tbaa !21
  %9 = getelementptr inbounds nuw %struct.Vec_Int_t_, ptr %8, i32 0, i32 2
  %10 = load ptr, ptr %9, align 8, !tbaa !22
  call void @free(ptr noundef %10) #8
  %11 = load ptr, ptr %2, align 8, !tbaa !21
  %12 = getelementptr inbounds nuw %struct.Vec_Int_t_, ptr %11, i32 0, i32 2
  store ptr null, ptr %12, align 8, !tbaa !22
  br label %14

13:                                               ; preds = %1
  br label %14

14:                                               ; preds = %13, %7
  %15 = load ptr, ptr %2, align 8, !tbaa !21
  %16 = icmp ne ptr %15, null
  br i1 %16, label %17, label %19

17:                                               ; preds = %14
  %18 = load ptr, ptr %2, align 8, !tbaa !21
  call void @free(ptr noundef %18) #8
  store ptr null, ptr %2, align 8, !tbaa !21
  br label %20

19:                                               ; preds = %14
  br label %20

20:                                               ; preds = %19, %17
  ret void
}

; Function Attrs: nounwind uwtable
define void @Llb_Nonlin4RemovePart(ptr noundef %0, ptr noundef %1) #0 {
  %3 = alloca ptr, align 8
  %4 = alloca ptr, align 8
  store ptr %0, ptr %3, align 8, !tbaa !3
  store ptr %1, ptr %4, align 8, !tbaa !24
  %5 = load ptr, ptr %3, align 8, !tbaa !3
  %6 = getelementptr inbounds nuw %struct.Llb_Mgr_t_, ptr %5, i32 0, i32 3
  %7 = load ptr, ptr %6, align 8, !tbaa !26
  %8 = load ptr, ptr %4, align 8, !tbaa !24
  %9 = getelementptr inbounds nuw %struct.Llb_Prt_t_, ptr %8, i32 0, i32 0
  %10 = load i32, ptr %9, align 8, !tbaa !27
  %11 = sext i32 %10 to i64
  %12 = getelementptr inbounds ptr, ptr %7, i64 %11
  store ptr null, ptr %12, align 8, !tbaa !24
  %13 = load ptr, ptr %4, align 8, !tbaa !24
  %14 = getelementptr inbounds nuw %struct.Llb_Prt_t_, ptr %13, i32 0, i32 3
  %15 = load ptr, ptr %14, align 8, !tbaa !30
  call void @Vec_IntFree(ptr noundef %15)
  %16 = load ptr, ptr %3, align 8, !tbaa !3
  %17 = getelementptr inbounds nuw %struct.Llb_Mgr_t_, ptr %16, i32 0, i32 0
  %18 = load ptr, ptr %17, align 8, !tbaa !31
  %19 = load ptr, ptr %4, align 8, !tbaa !24
  %20 = getelementptr inbounds nuw %struct.Llb_Prt_t_, ptr %19, i32 0, i32 2
  %21 = load ptr, ptr %20, align 8, !tbaa !32
  call void @Cudd_RecursiveDeref(ptr noundef %18, ptr noundef %21)
  %22 = load ptr, ptr %4, align 8, !tbaa !24
  %23 = icmp ne ptr %22, null
  br i1 %23, label %24, label %26

24:                                               ; preds = %2
  %25 = load ptr, ptr %4, align 8, !tbaa !24
  call void @free(ptr noundef %25) #8
  store ptr null, ptr %4, align 8, !tbaa !24
  br label %27

26:                                               ; preds = %2
  br label %27

27:                                               ; preds = %26, %24
  ret void
}

; Function Attrs: inlinehint nounwind uwtable
define internal ptr @Llb_MgrPart(ptr noundef %0, i32 noundef %1) #1 {
  %3 = alloca ptr, align 8
  %4 = alloca i32, align 4
  store ptr %0, ptr %3, align 8, !tbaa !3
  store i32 %1, ptr %4, align 4, !tbaa !50
  %5 = load ptr, ptr %3, align 8, !tbaa !3
  %6 = getelementptr inbounds nuw %struct.Llb_Mgr_t_, ptr %5, i32 0, i32 3
  %7 = load ptr, ptr %6, align 8, !tbaa !26
  %8 = load i32, ptr %4, align 4, !tbaa !50
  %9 = sext i32 %8 to i64
  %10 = getelementptr inbounds ptr, ptr %7, i64 %9
  %11 = load ptr, ptr %10, align 8, !tbaa !24
  ret ptr %11
}

; Function Attrs: nounwind uwtable
define void @Llb_Nonlin4RemoveVar(ptr noundef %0, ptr noundef %1) #0 {
  %3 = alloca ptr, align 8
  %4 = alloca ptr, align 8
  store ptr %0, ptr %3, align 8, !tbaa !3
  store ptr %1, ptr %4, align 8, !tbaa !8
  %5 = load ptr, ptr %3, align 8, !tbaa !3
  %6 = getelementptr inbounds nuw %struct.Llb_Mgr_t_, ptr %5, i32 0, i32 4
  %7 = load ptr, ptr %6, align 8, !tbaa !10
  %8 = load ptr, ptr %4, align 8, !tbaa !8
  %9 = getelementptr inbounds nuw %struct.Llb_Var_t_, ptr %8, i32 0, i32 0
  %10 = load i32, ptr %9, align 8, !tbaa !18
  %11 = sext i32 %10 to i64
  %12 = getelementptr inbounds ptr, ptr %7, i64 %11
  store ptr null, ptr %12, align 8, !tbaa !8
  %13 = load ptr, ptr %4, align 8, !tbaa !8
  %14 = getelementptr inbounds nuw %struct.Llb_Var_t_, ptr %13, i32 0, i32 2
  %15 = load ptr, ptr %14, align 8, !tbaa !20
  call void @Vec_IntFree(ptr noundef %15)
  %16 = load ptr, ptr %4, align 8, !tbaa !8
  %17 = icmp ne ptr %16, null
  br i1 %17, label %18, label %20

18:                                               ; preds = %2
  %19 = load ptr, ptr %4, align 8, !tbaa !8
  call void @free(ptr noundef %19) #8
  store ptr null, ptr %4, align 8, !tbaa !8
  br label %21

20:                                               ; preds = %2
  br label %21

21:                                               ; preds = %20, %18
  ret void
}

; Function Attrs: inlinehint nounwind uwtable
define internal ptr @Llb_MgrVar(ptr noundef %0, i32 noundef %1) #1 {
  %3 = alloca ptr, align 8
  %4 = alloca i32, align 4
  store ptr %0, ptr %3, align 8, !tbaa !3
  store i32 %1, ptr %4, align 4, !tbaa !50
  %5 = load ptr, ptr %3, align 8, !tbaa !3
  %6 = getelementptr inbounds nuw %struct.Llb_Mgr_t_, ptr %5, i32 0, i32 4
  %7 = load ptr, ptr %6, align 8, !tbaa !10
  %8 = load i32, ptr %4, align 4, !tbaa !50
  %9 = sext i32 %8 to i64
  %10 = getelementptr inbounds ptr, ptr %7, i64 %9
  %11 = load ptr, ptr %10, align 8, !tbaa !8
  ret ptr %11
}

; Function Attrs: nounwind uwtable
define void @Llb_Nonlin4Free(ptr noundef %0) #0 {
  %2 = alloca ptr, align 8
  %3 = alloca ptr, align 8
  %4 = alloca ptr, align 8
  %5 = alloca i32, align 4
  store ptr %0, ptr %2, align 8, !tbaa !3
  call void @llvm.lifetime.start.p0(i64 8, ptr %3) #8
  call void @llvm.lifetime.start.p0(i64 8, ptr %4) #8
  call void @llvm.lifetime.start.p0(i64 4, ptr %5) #8
  store i32 0, ptr %5, align 4, !tbaa !50
  br label %6

6:                                                ; preds = %26, %1
  %7 = load i32, ptr %5, align 4, !tbaa !50
  %8 = load ptr, ptr %2, align 8, !tbaa !3
  %9 = getelementptr inbounds nuw %struct.Llb_Mgr_t_, ptr %8, i32 0, i32 6
  %10 = load i32, ptr %9, align 4, !tbaa !56
  %11 = icmp slt i32 %7, %10
  br i1 %11, label %12, label %16

12:                                               ; preds = %6
  %13 = load ptr, ptr %2, align 8, !tbaa !3
  %14 = load i32, ptr %5, align 4, !tbaa !50
  %15 = call ptr @Llb_MgrVar(ptr noundef %13, i32 noundef %14)
  store ptr %15, ptr %4, align 8, !tbaa !8
  br label %16

16:                                               ; preds = %12, %6
  %17 = phi i1 [ false, %6 ], [ true, %12 ]
  br i1 %17, label %18, label %29

18:                                               ; preds = %16
  %19 = load ptr, ptr %4, align 8, !tbaa !8
  %20 = icmp eq ptr %19, null
  br i1 %20, label %21, label %22

21:                                               ; preds = %18
  br label %25

22:                                               ; preds = %18
  %23 = load ptr, ptr %2, align 8, !tbaa !3
  %24 = load ptr, ptr %4, align 8, !tbaa !8
  call void @Llb_Nonlin4RemoveVar(ptr noundef %23, ptr noundef %24)
  br label %25

25:                                               ; preds = %22, %21
  br label %26

26:                                               ; preds = %25
  %27 = load i32, ptr %5, align 4, !tbaa !50
  %28 = add nsw i32 %27, 1
  store i32 %28, ptr %5, align 4, !tbaa !50
  br label %6, !llvm.loop !119

29:                                               ; preds = %16
  store i32 0, ptr %5, align 4, !tbaa !50
  br label %30

30:                                               ; preds = %50, %29
  %31 = load i32, ptr %5, align 4, !tbaa !50
  %32 = load ptr, ptr %2, align 8, !tbaa !3
  %33 = getelementptr inbounds nuw %struct.Llb_Mgr_t_, ptr %32, i32 0, i32 5
  %34 = load i32, ptr %33, align 8, !tbaa !59
  %35 = icmp slt i32 %31, %34
  br i1 %35, label %36, label %40

36:                                               ; preds = %30
  %37 = load ptr, ptr %2, align 8, !tbaa !3
  %38 = load i32, ptr %5, align 4, !tbaa !50
  %39 = call ptr @Llb_MgrPart(ptr noundef %37, i32 noundef %38)
  store ptr %39, ptr %3, align 8, !tbaa !24
  br label %40

40:                                               ; preds = %36, %30
  %41 = phi i1 [ false, %30 ], [ true, %36 ]
  br i1 %41, label %42, label %53

42:                                               ; preds = %40
  %43 = load ptr, ptr %3, align 8, !tbaa !24
  %44 = icmp eq ptr %43, null
  br i1 %44, label %45, label %46

45:                                               ; preds = %42
  br label %49

46:                                               ; preds = %42
  %47 = load ptr, ptr %2, align 8, !tbaa !3
  %48 = load ptr, ptr %3, align 8, !tbaa !24
  call void @Llb_Nonlin4RemovePart(ptr noundef %47, ptr noundef %48)
  br label %49

49:                                               ; preds = %46, %45
  br label %50

50:                                               ; preds = %49
  %51 = load i32, ptr %5, align 4, !tbaa !50
  %52 = add nsw i32 %51, 1
  store i32 %52, ptr %5, align 4, !tbaa !50
  br label %30, !llvm.loop !120

53:                                               ; preds = %40
  %54 = load ptr, ptr %2, align 8, !tbaa !3
  %55 = getelementptr inbounds nuw %struct.Llb_Mgr_t_, ptr %54, i32 0, i32 4
  %56 = load ptr, ptr %55, align 8, !tbaa !10
  %57 = icmp ne ptr %56, null
  br i1 %57, label %58, label %64

58:                                               ; preds = %53
  %59 = load ptr, ptr %2, align 8, !tbaa !3
  %60 = getelementptr inbounds nuw %struct.Llb_Mgr_t_, ptr %59, i32 0, i32 4
  %61 = load ptr, ptr %60, align 8, !tbaa !10
  call void @free(ptr noundef %61) #8
  %62 = load ptr, ptr %2, align 8, !tbaa !3
  %63 = getelementptr inbounds nuw %struct.Llb_Mgr_t_, ptr %62, i32 0, i32 4
  store ptr null, ptr %63, align 8, !tbaa !10
  br label %65

64:                                               ; preds = %53
  br label %65

65:                                               ; preds = %64, %58
  %66 = load ptr, ptr %2, align 8, !tbaa !3
  %67 = getelementptr inbounds nuw %struct.Llb_Mgr_t_, ptr %66, i32 0, i32 3
  %68 = load ptr, ptr %67, align 8, !tbaa !26
  %69 = icmp ne ptr %68, null
  br i1 %69, label %70, label %76

70:                                               ; preds = %65
  %71 = load ptr, ptr %2, align 8, !tbaa !3
  %72 = getelementptr inbounds nuw %struct.Llb_Mgr_t_, ptr %71, i32 0, i32 3
  %73 = load ptr, ptr %72, align 8, !tbaa !26
  call void @free(ptr noundef %73) #8
  %74 = load ptr, ptr %2, align 8, !tbaa !3
  %75 = getelementptr inbounds nuw %struct.Llb_Mgr_t_, ptr %74, i32 0, i32 3
  store ptr null, ptr %75, align 8, !tbaa !26
  br label %77

76:                                               ; preds = %65
  br label %77

77:                                               ; preds = %76, %70
  %78 = load ptr, ptr %2, align 8, !tbaa !3
  %79 = getelementptr inbounds nuw %struct.Llb_Mgr_t_, ptr %78, i32 0, i32 8
  %80 = load ptr, ptr %79, align 8, !tbaa !64
  %81 = icmp ne ptr %80, null
  br i1 %81, label %82, label %88

82:                                               ; preds = %77
  %83 = load ptr, ptr %2, align 8, !tbaa !3
  %84 = getelementptr inbounds nuw %struct.Llb_Mgr_t_, ptr %83, i32 0, i32 8
  %85 = load ptr, ptr %84, align 8, !tbaa !64
  call void @free(ptr noundef %85) #8
  %86 = load ptr, ptr %2, align 8, !tbaa !3
  %87 = getelementptr inbounds nuw %struct.Llb_Mgr_t_, ptr %86, i32 0, i32 8
  store ptr null, ptr %87, align 8, !tbaa !64
  br label %89

88:                                               ; preds = %77
  br label %89

89:                                               ; preds = %88, %82
  %90 = load ptr, ptr %2, align 8, !tbaa !3
  %91 = icmp ne ptr %90, null
  br i1 %91, label %92, label %94

92:                                               ; preds = %89
  %93 = load ptr, ptr %2, align 8, !tbaa !3
  call void @free(ptr noundef %93) #8
  store ptr null, ptr %2, align 8, !tbaa !3
  br label %95

94:                                               ; preds = %89
  br label %95

95:                                               ; preds = %94, %92
  call void @llvm.lifetime.end.p0(i64 4, ptr %5) #8
  call void @llvm.lifetime.end.p0(i64 8, ptr %4) #8
  call void @llvm.lifetime.end.p0(i64 8, ptr %3) #8
  ret void
}