; Function Attrs: nounwind uwtable
define void @Llb_Nonlin4Free(ptr noundef captures(none) %0) local_unnamed_addr #2 {
  %2 = getelementptr inbounds nuw i8, ptr %0, i64 44
  %3 = load i32, ptr %2, align 4, !tbaa !51
  %4 = icmp sgt i32 %3, 0
  br i1 %4, label %.lr.ph, label %.critedge.preheader

.lr.ph:                                           ; preds = %1
  %5 = getelementptr i8, ptr %0, i64 32
  br label %10

.critedge.preheader:                              ; preds = %24, %1
  %6 = getelementptr inbounds nuw i8, ptr %0, i64 40
  %7 = load i32, ptr %6, align 8, !tbaa !52
  %8 = icmp sgt i32 %7, 0
  br i1 %8, label %.lr.ph41, label %.critedge2

.lr.ph41:                                         ; preds = %.critedge.preheader
  %9 = getelementptr i8, ptr %0, i64 24
  br label %28

10:                                               ; preds = %.lr.ph, %24
  %11 = phi i32 [ %3, %.lr.ph ], [ %25, %24 ]
  %indvars.iv = phi i64 [ 0, %.lr.ph ], [ %indvars.iv.next, %24 ]
  %.val = load ptr, ptr %5, align 8, !tbaa !3
  %12 = getelementptr inbounds nuw ptr, ptr %.val, i64 %indvars.iv
  %13 = load ptr, ptr %12, align 8, !tbaa !16
  %14 = icmp eq ptr %13, null
  br i1 %14, label %24, label %15

15:                                               ; preds = %10
  %16 = load i32, ptr %13, align 8, !tbaa !14
  %17 = sext i32 %16 to i64
  %18 = getelementptr inbounds ptr, ptr %.val, i64 %17
  store ptr null, ptr %18, align 8, !tbaa !16
  %19 = getelementptr inbounds nuw i8, ptr %13, i64 8
  %20 = load ptr, ptr %19, align 8, !tbaa !18
  %21 = getelementptr inbounds nuw i8, ptr %20, i64 8
  %22 = load ptr, ptr %21, align 8, !tbaa !19
  %.not.i.i = icmp eq ptr %22, null
  br i1 %.not.i.i, label %Llb_Nonlin4RemoveVar.exit, label %23

23:                                               ; preds = %15
  tail call void @free(ptr noundef nonnull %22) #14
  br label %Llb_Nonlin4RemoveVar.exit

Llb_Nonlin4RemoveVar.exit:                        ; preds = %15, %23
  tail call void @free(ptr noundef nonnull %20) #14
  tail call void @free(ptr noundef nonnull %13) #14
  %.pre = load i32, ptr %2, align 4, !tbaa !51
  br label %24

24:                                               ; preds = %Llb_Nonlin4RemoveVar.exit, %10
  %25 = phi i32 [ %.pre, %Llb_Nonlin4RemoveVar.exit ], [ %11, %10 ]
  %indvars.iv.next = add nuw nsw i64 %indvars.iv, 1
  %26 = sext i32 %25 to i64
  %27 = icmp slt i64 %indvars.iv.next, %26
  br i1 %27, label %10, label %.critedge.preheader, !llvm.loop !105

28:                                               ; preds = %.lr.ph41, %.critedge
  %29 = phi i32 [ %7, %.lr.ph41 ], [ %45, %.critedge ]
  %indvars.iv43 = phi i64 [ 0, %.lr.ph41 ], [ %indvars.iv.next44, %.critedge ]
  %.val37 = load ptr, ptr %9, align 8, !tbaa !21
  %30 = getelementptr inbounds nuw ptr, ptr %.val37, i64 %indvars.iv43
  %31 = load ptr, ptr %30, align 8, !tbaa !25
  %32 = icmp eq ptr %31, null
  br i1 %32, label %.critedge, label %33

33:                                               ; preds = %28
  %34 = load i32, ptr %31, align 8, !tbaa !22
  %35 = sext i32 %34 to i64
  %36 = getelementptr inbounds ptr, ptr %.val37, i64 %35
  store ptr null, ptr %36, align 8, !tbaa !25
  %37 = getelementptr inbounds nuw i8, ptr %31, i64 16
  %38 = load ptr, ptr %37, align 8, !tbaa !27
  %39 = getelementptr inbounds nuw i8, ptr %38, i64 8
  %40 = load ptr, ptr %39, align 8, !tbaa !19
  %.not.i.i38 = icmp eq ptr %40, null
  br i1 %.not.i.i38, label %Llb_Nonlin4RemovePart.exit, label %41

41:                                               ; preds = %33
  tail call void @free(ptr noundef nonnull %40) #14
  br label %Llb_Nonlin4RemovePart.exit

Llb_Nonlin4RemovePart.exit:                       ; preds = %33, %41
  tail call void @free(ptr noundef nonnull %38) #14
  %42 = load ptr, ptr %0, align 8, !tbaa !28
  %43 = getelementptr inbounds nuw i8, ptr %31, i64 8
  %44 = load ptr, ptr %43, align 8, !tbaa !29
  tail call void @Cudd_RecursiveDeref(ptr noundef %42, ptr noundef %44) #14
  tail call void @free(ptr noundef nonnull %31) #14
  %.pre46 = load i32, ptr %6, align 8, !tbaa !52
  br label %.critedge

.critedge:                                        ; preds = %Llb_Nonlin4RemovePart.exit, %28
  %45 = phi i32 [ %.pre46, %Llb_Nonlin4RemovePart.exit ], [ %29, %28 ]
  %indvars.iv.next44 = add nuw nsw i64 %indvars.iv43, 1
  %46 = sext i32 %45 to i64
  %47 = icmp slt i64 %indvars.iv.next44, %46
  br i1 %47, label %28, label %.critedge2, !llvm.loop !106

.critedge2:                                       ; preds = %.critedge, %.critedge.preheader
  %48 = getelementptr inbounds nuw i8, ptr %0, i64 32
  %49 = load ptr, ptr %48, align 8, !tbaa !3
  %.not = icmp eq ptr %49, null
  br i1 %.not, label %51, label %50

50:                                               ; preds = %.critedge2
  tail call void @free(ptr noundef nonnull %49) #14
  store ptr null, ptr %48, align 8, !tbaa !3
  br label %51

51:                                               ; preds = %.critedge2, %50
  %52 = getelementptr inbounds nuw i8, ptr %0, i64 24
  %53 = load ptr, ptr %52, align 8, !tbaa !21
  %.not34 = icmp eq ptr %53, null
  br i1 %.not34, label %55, label %54

54:                                               ; preds = %51
  tail call void @free(ptr noundef nonnull %53) #14
  store ptr null, ptr %52, align 8, !tbaa !21
  br label %55

55:                                               ; preds = %51, %54
  %56 = getelementptr inbounds nuw i8, ptr %0, i64 56
  %57 = load ptr, ptr %56, align 8, !tbaa !57
  %.not35 = icmp eq ptr %57, null
  br i1 %.not35, label %59, label %58

58:                                               ; preds = %55
  tail call void @free(ptr noundef nonnull %57) #14
  br label %59

59:                                               ; preds = %55, %58
  tail call void @free(ptr noundef nonnull %0) #14
  ret void
}